target datalayout = "e-m:e-p270:32:32-p271:32:32-p272:64:64-i64:64-i128:128-f80:128-n8:16:32:64-S128"
target triple = "x86_64-pc-linux-gnu"

%struct.RStruct = type { %struct.RBasic, %union.anon }
%struct.RBasic = type { i64, i64 }
%union.anon = type { %struct.anon }
%struct.anon = type { i64, ptr }
%struct.RArray = type { %struct.RBasic, %union.anon.0 }
%union.anon.0 = type { %struct.anon.1 }
%struct.anon.1 = type { i64, %union.anon.2, ptr }
%union.anon.2 = type { i64 }

@rb_eArgError = external global i64, align 8
@rb_cNumeric = external global i64, align 8
@.str.39 = private unnamed_addr constant [16 x i8] c"step can't be 0\00", align 1
@.str.42 = private unnamed_addr constant [23 x i8] c"step can't be negative\00", align 1

; Function Attrs: inlinehint nounwind sspstrong willreturn memory(read) uwtable
define internal i64 @RB_FL_TEST_RAW(i64 noundef %0, i64 noundef %1) #7 {
  %3 = alloca i64, align 8
  %4 = alloca i64, align 8
  store i64 %0, ptr %3, align 8, !tbaa !7
  store i64 %1, ptr %4, align 8, !tbaa !7
  %5 = load i64, ptr %3, align 8, !tbaa !7
  %6 = inttoptr i64 %5 to ptr
  %7 = getelementptr inbounds nuw %struct.RBasic, ptr %6, i32 0, i32 0
  %8 = load i64, ptr %7, align 8, !tbaa !44
  %9 = load i64, ptr %4, align 8, !tbaa !7
  %10 = and i64 %8, %9
  ret i64 %10
}

; Function Attrs: inlinehint nounwind sspstrong willreturn memory(read) uwtable
define internal zeroext i1 @RB_FL_ANY_RAW(i64 noundef %0, i64 noundef %1) #7 {
  %3 = alloca i64, align 8
  %4 = alloca i64, align 8
  store i64 %0, ptr %3, align 8, !tbaa !7
  store i64 %1, ptr %4, align 8, !tbaa !7
  %5 = load i64, ptr %3, align 8, !tbaa !7
  %6 = load i64, ptr %4, align 8, !tbaa !7
  %7 = call i64 @RB_FL_TEST_RAW(i64 noundef %5, i64 noundef %6) #21
  %8 = icmp ne i64 %7, 0
  ret i1 %8
}

; Function Attrs: inlinehint nounwind sspstrong uwtable
define internal ptr @RSTRUCT_CONST_PTR(i64 noundef %0) #3 {
  %2 = alloca ptr, align 8
  %3 = alloca i64, align 8
  %4 = alloca ptr, align 8
  %5 = alloca i32, align 4
  store i64 %0, ptr %3, align 8, !tbaa !7
  call void @llvm.lifetime.start.p0(i64 8, ptr %4) #18
  %6 = load i64, ptr %3, align 8, !tbaa !7
  %7 = inttoptr i64 %6 to ptr
  store ptr %7, ptr %4, align 8, !tbaa !42
  %8 = load i64, ptr %3, align 8, !tbaa !7
  %9 = call i64 @RB_FL_TEST_RAW(i64 noundef %8, i64 noundef 1040384) #21
  %10 = icmp ne i64 %9, 0
  br i1 %10, label %11, label %15

11:                                               ; preds = %1
  %12 = load ptr, ptr %4, align 8, !tbaa !42
  %13 = getelementptr inbounds nuw %struct.RStruct, ptr %12, i32 0, i32 1
  %14 = getelementptr inbounds [1 x i64], ptr %13, i64 0, i64 0
  store ptr %14, ptr %2, align 8
  store i32 1, ptr %5, align 4
  br label %20

15:                                               ; preds = %1
  %16 = load ptr, ptr %4, align 8, !tbaa !42
  %17 = getelementptr inbounds nuw %struct.RStruct, ptr %16, i32 0, i32 1
  %18 = getelementptr inbounds nuw %struct.anon, ptr %17, i32 0, i32 1
  %19 = load ptr, ptr %18, align 8, !tbaa !18
  store ptr %19, ptr %2, align 8
  store i32 1, ptr %5, align 4
  br label %20

20:                                               ; preds = %15, %11
  call void @llvm.lifetime.end.p0(i64 8, ptr %4) #18
  %21 = load ptr, ptr %2, align 8
  ret ptr %21
}

; Function Attrs: inlinehint nounwind sspstrong willreturn memory(read) uwtable
define internal ptr @rb_array_const_ptr(i64 noundef %0) #7 {
  %2 = alloca ptr, align 8
  %3 = alloca i64, align 8
  store i64 %0, ptr %3, align 8, !tbaa !7
  %4 = load i64, ptr %3, align 8, !tbaa !7
  %5 = call zeroext i1 @RB_FL_ANY_RAW(i64 noundef %4, i64 noundef 8192) #21
  br i1 %5, label %6, label %11

6:                                                ; preds = %1
  %7 = load i64, ptr %3, align 8, !tbaa !7
  %8 = inttoptr i64 %7 to ptr
  %9 = getelementptr inbounds nuw %struct.RArray, ptr %8, i32 0, i32 1
  %10 = getelementptr inbounds [1 x i64], ptr %9, i64 0, i64 0
  store ptr %10, ptr %2, align 8
  br label %17

11:                                               ; preds = %1
  %12 = load i64, ptr %3, align 8, !tbaa !7
  %13 = inttoptr i64 %12 to ptr
  %14 = getelementptr inbounds nuw %struct.RArray, ptr %13, i32 0, i32 1
  %15 = getelementptr inbounds nuw %struct.anon.1, ptr %14, i32 0, i32 2
  %16 = load ptr, ptr %15, align 8, !tbaa !18
  store ptr %16, ptr %2, align 8
  br label %17

17:                                               ; preds = %11, %6
  %18 = load ptr, ptr %2, align 8
  ret ptr %18
}

; Function Attrs: inlinehint nounwind sspstrong uwtable
define internal i64 @internal_RSTRUCT_GET(i64 noundef %0, i64 noundef %1) #3 {
  %3 = alloca i64, align 8
  %4 = alloca i64, align 8
  store i64 %0, ptr %3, align 8, !tbaa !7
  store i64 %1, ptr %4, align 8, !tbaa !7
  %5 = load i64, ptr %3, align 8, !tbaa !7
  %6 = call ptr @RSTRUCT_CONST_PTR(i64 noundef %5)
  %7 = load i64, ptr %4, align 8, !tbaa !7
  %8 = getelementptr i64, ptr %6, i64 %7
  %9 = load i64, ptr %8, align 8, !tbaa !7
  ret i64 %9
}

; Function Attrs: inlinehint nounwind sspstrong willreturn memory(none) uwtable
define internal zeroext i1 @RB_TEST(i64 noundef %0) #4 {
  %2 = alloca i64, align 8
  store i64 %0, ptr %2, align 8, !tbaa !7
  %3 = load i64, ptr %2, align 8, !tbaa !7
  %4 = and i64 %3, -5
  %5 = icmp ne i64 %4, 0
  ret i1 %5
}

; Function Attrs: inlinehint nounwind sspstrong uwtable
define internal i64 @RANGE_EXCL(i64 noundef %0) #3 {
  %2 = alloca i64, align 8
  store i64 %0, ptr %2, align 8, !tbaa !7
  %3 = load i64, ptr %2, align 8, !tbaa !7
  %4 = call i64 @internal_RSTRUCT_GET(i64 noundef %3, i64 noundef 2)
  ret i64 %4
}

; Function Attrs: nounwind sspstrong uwtable
define internal i64 @check_step_domain(i64 noundef %0) #0 {
  %2 = alloca i64, align 8
  %3 = alloca i64, align 8
  %4 = alloca i32, align 4
  store i64 %0, ptr %2, align 8, !tbaa !7
  call void @llvm.lifetime.start.p0(i64 8, ptr %3) #18
  store i64 1, ptr %3, align 8, !tbaa !7
  call void @llvm.lifetime.start.p0(i64 4, ptr %4) #18
  %5 = load i64, ptr %2, align 8, !tbaa !7
  %6 = load i64, ptr @rb_cNumeric, align 8, !tbaa !7
  %7 = call i64 @rb_obj_is_kind_of(i64 noundef %5, i64 noundef %6)
  %8 = icmp ne i64 %7, 0
  br i1 %8, label %12, label %9

9:                                                ; preds = %1
  %10 = load i64, ptr %2, align 8, !tbaa !7
  %11 = call i64 @rb_to_int(i64 noundef %10)
  store i64 %11, ptr %2, align 8, !tbaa !7
  br label %12

12:                                               ; preds = %9, %1
  %13 = load i64, ptr %2, align 8, !tbaa !7
  %14 = call i64 @rb_funcallv(i64 noundef %13, i64 noundef 135, i32 noundef 1, ptr noundef %3)
  %15 = load i64, ptr %2, align 8, !tbaa !7
  %16 = load i64, ptr %3, align 8, !tbaa !7
  %17 = call i32 @rb_cmpint(i64 noundef %14, i64 noundef %15, i64 noundef %16)
  store i32 %17, ptr %4, align 4, !tbaa !11
  %18 = load i32, ptr %4, align 4, !tbaa !11
  %19 = icmp slt i32 %18, 0
  br i1 %19, label %20, label %22

20:                                               ; preds = %12
  %21 = load i64, ptr @rb_eArgError, align 8, !tbaa !7
  call void (i64, ptr, ...) @rb_raise(i64 noundef %21, ptr noundef @.str.42) #20
  unreachable

22:                                               ; preds = %12
  %23 = load i32, ptr %4, align 4, !tbaa !11
  %24 = icmp eq i32 %23, 0
  br i1 %24, label %25, label %27

25:                                               ; preds = %22
  %26 = load i64, ptr @rb_eArgError, align 8, !tbaa !7
  call void (i64, ptr, ...) @rb_raise(i64 noundef %26, ptr noundef @.str.39) #20
  unreachable

27:                                               ; preds = %22
  br label %28

28:                                               ; preds = %27
  %29 = load i64, ptr %2, align 8, !tbaa !7
  call void @llvm.lifetime.end.p0(i64 4, ptr %4) #18
  call void @llvm.lifetime.end.p0(i64 8, ptr %3) #18
  ret i64 %29
}

; Function Attrs: inlinehint nounwind sspstrong willreturn memory(read) uwtable
define internal i64 @RARRAY_AREF(i64 noundef %0, i64 noundef %1) #7 {
  %3 = alloca i64, align 8
  %4 = alloca i64, align 8
  %5 = alloca i64, align 8
  store i64 %0, ptr %3, align 8, !tbaa !7
  store i64 %1, ptr %4, align 8, !tbaa !7
  call void @llvm.lifetime.start.p0(i64 8, ptr %5) #18
  %6 = load i64, ptr %3, align 8, !tbaa !7
  %7 = call ptr @rb_array_const_ptr(i64 noundef %6) #21
  %8 = load i64, ptr %4, align 8, !tbaa !7
  %9 = getelementptr i64, ptr %7, i64 %8
  %10 = load i64, ptr %9, align 8, !tbaa !7
  store i64 %10, ptr %5, align 8, !tbaa !7
  %11 = load i64, ptr %5, align 8, !tbaa !7
  call void @llvm.lifetime.end.p0(i64 8, ptr %5) #18
  ret i64 %11
}

; Function Attrs: inlinehint nounwind sspstrong uwtable
define internal i64 @RANGE_END(i64 noundef %0) #3 {
  %2 = alloca i64, align 8
  store i64 %0, ptr %2, align 8, !tbaa !7
  %3 = load i64, ptr %2, align 8, !tbaa !7
  %4 = call i64 @internal_RSTRUCT_GET(i64 noundef %3, i64 noundef 1)
  ret i64 %4
}

; Function Attrs: inlinehint nounwind sspstrong uwtable
define internal i64 @RANGE_BEG(i64 noundef %0) #3 {
  %2 = alloca i64, align 8
  store i64 %0, ptr %2, align 8, !tbaa !7
  %3 = load i64, ptr %2, align 8, !tbaa !7
  %4 = inttoptr i64 %3 to ptr
  %5 = getelementptr inbounds nuw %struct.RStruct, ptr %4, i32 0, i32 1
  %6 = getelementptr [1 x i64], ptr %5, i64 0, i64 0
  %7 = load i64, ptr %6, align 8, !tbaa !18
  ret i64 %7
}

; Function Attrs: nounwind sspstrong uwtable
define internal i64 @range_step_size(i64 noundef %0, i64 noundef %1, i64 noundef %2) #0 {
  %4 = alloca i64, align 8
  %5 = alloca i64, align 8
  %6 = alloca i64, align 8
  %7 = alloca i64, align 8
  %8 = alloca i64, align 8
  %9 = alloca i64, align 8
  %10 = alloca i64, align 8
  %11 = alloca i32, align 4
  store i64 %0, ptr %5, align 8, !tbaa !7
  store i64 %1, ptr %6, align 8, !tbaa !7
  store i64 %2, ptr %7, align 8, !tbaa !7
  call void @llvm.lifetime.start.p0(i64 8, ptr %8) #18
  %12 = load i64, ptr %5, align 8, !tbaa !7
  %13 = call i64 @RANGE_BEG(i64 noundef %12)
  store i64 %13, ptr %8, align 8, !tbaa !7
  call void @llvm.lifetime.start.p0(i64 8, ptr %9) #18
  %14 = load i64, ptr %5, align 8, !tbaa !7
  %15 = call i64 @RANGE_END(i64 noundef %14)
  store i64 %15, ptr %9, align 8, !tbaa !7
  call void @llvm.lifetime.start.p0(i64 8, ptr %10) #18
  store i64 3, ptr %10, align 8, !tbaa !7
  %16 = load i64, ptr %6, align 8, !tbaa !7
  %17 = icmp ne i64 %16, 0
  br i1 %17, label %18, label %22

18:                                               ; preds = %3
  %19 = load i64, ptr %6, align 8, !tbaa !7
  %20 = call i64 @RARRAY_AREF(i64 noundef %19, i64 noundef 0) #21
  %21 = call i64 @check_step_domain(i64 noundef %20)
  store i64 %21, ptr %10, align 8, !tbaa !7
  br label %22

22:                                               ; preds = %18, %3
  %23 = load i64, ptr %8, align 8, !tbaa !7
  %24 = load i64, ptr @rb_cNumeric, align 8, !tbaa !7
  %25 = call i64 @rb_obj_is_kind_of(i64 noundef %23, i64 noundef %24)
  %26 = icmp ne i64 %25, 0
  br i1 %26, label %27, label %41

27:                                               ; preds = %22
  %28 = load i64, ptr %9, align 8, !tbaa !7
  %29 = load i64, ptr @rb_cNumeric, align 8, !tbaa !7
  %30 = call i64 @rb_obj_is_kind_of(i64 noundef %28, i64 noundef %29)
  %31 = icmp ne i64 %30, 0
  br i1 %31, label %32, label %41

32:                                               ; preds = %27
  %33 = load i64, ptr %8, align 8, !tbaa !7
  %34 = load i64, ptr %9, align 8, !tbaa !7
  %35 = load i64, ptr %10, align 8, !tbaa !7
  %36 = load i64, ptr %5, align 8, !tbaa !7
  %37 = call i64 @RANGE_EXCL(i64 noundef %36)
  %38 = call zeroext i1 @RB_TEST(i64 noundef %37) #19
  %39 = zext i1 %38 to i32
  %40 = call i64 @ruby_num_interval_step_size(i64 noundef %33, i64 noundef %34, i64 noundef %35, i32 noundef %39)
  store i64 %40, ptr %4, align 8
  store i32 1, ptr %11, align 4
  br label %42

41:                                               ; preds = %27, %22
  store i64 4, ptr %4, align 8
  store i32 1, ptr %11, align 4
  br label %42

42:                                               ; preds = %41, %32
  call void @llvm.lifetime.end.p0(i64 8, ptr %10) #18
  call void @llvm.lifetime.end.p0(i64 8, ptr %9) #18
  call void @llvm.lifetime.end.p0(i64 8, ptr %8) #18
  %43 = load i64, ptr %4, align 8
  ret i64 %43
}