; Function Attrs: nounwind sspstrong uwtable
define internal i64 @range_step_size(i64 noundef %0, i64 noundef %1, i64 %2) #0 {
  %4 = alloca i64, align 8
  %5 = inttoptr i64 %0 to ptr
  %6 = getelementptr inbounds nuw i8, ptr %5, i64 16
  %7 = load i64, ptr %6, align 8, !tbaa !13
  %8 = load i64, ptr %5, align 8, !tbaa !11
  %9 = and i64 %8, 1040384
  %.not.i.i.i = icmp eq i64 %9, 0
  br i1 %.not.i.i.i, label %10, label %RANGE_END.exit

10:                                               ; preds = %3
  %11 = getelementptr inbounds nuw i8, ptr %5, i64 24
  %12 = load ptr, ptr %11, align 8, !tbaa !13
  br label %RANGE_END.exit

RANGE_END.exit:                                   ; preds = %3, %10
  %.0.i.i.i = phi ptr [ %12, %10 ], [ %6, %3 ]
  %13 = getelementptr i8, ptr %.0.i.i.i, i64 8
  %14 = load i64, ptr %13, align 8, !tbaa !7
  %.not = icmp eq i64 %1, 0
  br i1 %.not, label %40, label %15

15:                                               ; preds = %RANGE_END.exit
  %16 = inttoptr i64 %1 to ptr
  %17 = load i64, ptr %16, align 8, !tbaa !11
  %18 = and i64 %17, 8192
  %.not.i.i = icmp eq i64 %18, 0
  br i1 %.not.i.i, label %21, label %19

19:                                               ; preds = %15
  %20 = getelementptr inbounds nuw i8, ptr %16, i64 16
  br label %RARRAY_AREF.exit

21:                                               ; preds = %15
  %22 = getelementptr inbounds nuw i8, ptr %16, i64 32
  %23 = load ptr, ptr %22, align 8, !tbaa !13
  br label %RARRAY_AREF.exit

RARRAY_AREF.exit:                                 ; preds = %19, %21
  %.0.i.i = phi ptr [ %20, %19 ], [ %23, %21 ]
  %24 = load i64, ptr %.0.i.i, align 8, !tbaa !7
  call void @llvm.lifetime.start.p0(i64 8, ptr nonnull %4) #13
  store i64 1, ptr %4, align 8, !tbaa !7
  %25 = load i64, ptr @rb_cNumeric, align 8, !tbaa !7
  %26 = tail call i64 @rb_obj_is_kind_of(i64 noundef %24, i64 noundef %25) #13
  %.not.i = icmp eq i64 %26, 0
  br i1 %.not.i, label %27, label %29

27:                                               ; preds = %RARRAY_AREF.exit
  %28 = tail call i64 @rb_to_int(i64 noundef %24) #13
  br label %29

29:                                               ; preds = %27, %RARRAY_AREF.exit
  %.0.i = phi i64 [ %24, %RARRAY_AREF.exit ], [ %28, %27 ]
  %30 = call i64 @rb_funcallv(i64 noundef %.0.i, i64 noundef 135, i32 noundef 1, ptr noundef nonnull %4) #13
  %31 = load i64, ptr %4, align 8, !tbaa !7
  %32 = call i32 @rb_cmpint(i64 noundef %30, i64 noundef %.0.i, i64 noundef %31) #13
  %33 = icmp slt i32 %32, 0
  br i1 %33, label %34, label %36

34:                                               ; preds = %29
  %35 = load i64, ptr @rb_eArgError, align 8, !tbaa !7
  call void (i64, ptr, ...) @rb_raise(i64 noundef %35, ptr noundef nonnull @.str.42) #14
  unreachable

36:                                               ; preds = %29
  %37 = icmp eq i32 %32, 0
  br i1 %37, label %38, label %check_step_domain.exit

38:                                               ; preds = %36
  %39 = load i64, ptr @rb_eArgError, align 8, !tbaa !7
  call void (i64, ptr, ...) @rb_raise(i64 noundef %39, ptr noundef nonnull @.str.39) #14
  unreachable

check_step_domain.exit:                           ; preds = %36
  call void @llvm.lifetime.end.p0(i64 8, ptr nonnull %4) #13
  br label %40

40:                                               ; preds = %check_step_domain.exit, %RANGE_END.exit
  %.0 = phi i64 [ %.0.i, %check_step_domain.exit ], [ 3, %RANGE_END.exit ]
  %41 = load i64, ptr @rb_cNumeric, align 8, !tbaa !7
  %42 = call i64 @rb_obj_is_kind_of(i64 noundef %7, i64 noundef %41) #13
  %.not13 = icmp eq i64 %42, 0
  br i1 %.not13, label %58, label %43

43:                                               ; preds = %40
  %44 = load i64, ptr @rb_cNumeric, align 8, !tbaa !7
  %45 = call i64 @rb_obj_is_kind_of(i64 noundef %14, i64 noundef %44) #13
  %.not14 = icmp eq i64 %45, 0
  br i1 %.not14, label %58, label %46

46:                                               ; preds = %43
  %47 = load i64, ptr %5, align 8, !tbaa !11
  %48 = and i64 %47, 1040384
  %.not.i.i.i15 = icmp eq i64 %48, 0
  br i1 %.not.i.i.i15, label %49, label %RANGE_EXCL.exit

49:                                               ; preds = %46
  %50 = getelementptr inbounds nuw i8, ptr %5, i64 24
  %51 = load ptr, ptr %50, align 8, !tbaa !13
  br label %RANGE_EXCL.exit

RANGE_EXCL.exit:                                  ; preds = %46, %49
  %.0.i.i.i16 = phi ptr [ %51, %49 ], [ %6, %46 ]
  %52 = getelementptr i8, ptr %.0.i.i.i16, i64 16
  %53 = load i64, ptr %52, align 8, !tbaa !7
  %54 = and i64 %53, -5
  %55 = icmp ne i64 %54, 0
  %56 = zext i1 %55 to i32
  %57 = call i64 @ruby_num_interval_step_size(i64 noundef %7, i64 noundef %14, i64 noundef %.0, i32 noundef %56) #13
  br label %58

58:                                               ; preds = %40, %43, %RANGE_EXCL.exit
  %.011 = phi i64 [ %57, %RANGE_EXCL.exit ], [ 4, %43 ], [ 4, %40 ]
  ret i64 %.011
}